target datalayout = "e-m:e-p270:32:32-p271:32:32-p272:64:64-i64:64-i128:128-f80:128-n8:16:32:64-S128"
target triple = "x86_64-pc-linux-gnu"

; Function Attrs: nounwind uwtable
define internal void @nsvg__xformMultiply(ptr noundef %0, ptr noundef %1) #0 {
  %3 = alloca ptr, align 8
  %4 = alloca ptr, align 8
  %5 = alloca float, align 4
  %6 = alloca float, align 4
  %7 = alloca float, align 4
  store ptr %0, ptr %3, align 8, !tbaa !77
  store ptr %1, ptr %4, align 8, !tbaa !77
  call void @llvm.lifetime.start.p0(i64 4, ptr %5) #11
  %8 = load ptr, ptr %3, align 8, !tbaa !77
  %9 = getelementptr inbounds float, ptr %8, i64 0
  %10 = load float, ptr %9, align 4, !tbaa !23
  %11 = load ptr, ptr %4, align 8, !tbaa !77
  %12 = getelementptr inbounds float, ptr %11, i64 0
  %13 = load float, ptr %12, align 4, !tbaa !23
  %14 = load ptr, ptr %3, align 8, !tbaa !77
  %15 = getelementptr inbounds float, ptr %14, i64 1
  %16 = load float, ptr %15, align 4, !tbaa !23
  %17 = load ptr, ptr %4, align 8, !tbaa !77
  %18 = getelementptr inbounds float, ptr %17, i64 2
  %19 = load float, ptr %18, align 4, !tbaa !23
  %20 = fmul float %16, %19
  %21 = call float @llvm.fmuladd.f32(float %10, float %13, float %20)
  store float %21, ptr %5, align 4, !tbaa !23
  call void @llvm.lifetime.start.p0(i64 4, ptr %6) #11
  %22 = load ptr, ptr %3, align 8, !tbaa !77
  %23 = getelementptr inbounds float, ptr %22, i64 2
  %24 = load float, ptr %23, align 4, !tbaa !23
  %25 = load ptr, ptr %4, align 8, !tbaa !77
  %26 = getelementptr inbounds float, ptr %25, i64 0
  %27 = load float, ptr %26, align 4, !tbaa !23
  %28 = load ptr, ptr %3, align 8, !tbaa !77
  %29 = getelementptr inbounds float, ptr %28, i64 3
  %30 = load float, ptr %29, align 4, !tbaa !23
  %31 = load ptr, ptr %4, align 8, !tbaa !77
  %32 = getelementptr inbounds float, ptr %31, i64 2
  %33 = load float, ptr %32, align 4, !tbaa !23
  %34 = fmul float %30, %33
  %35 = call float @llvm.fmuladd.f32(float %24, float %27, float %34)
  store float %35, ptr %6, align 4, !tbaa !23
  call void @llvm.lifetime.start.p0(i64 4, ptr %7) #11
  %36 = load ptr, ptr %3, align 8, !tbaa !77
  %37 = getelementptr inbounds float, ptr %36, i64 4
  %38 = load float, ptr %37, align 4, !tbaa !23
  %39 = load ptr, ptr %4, align 8, !tbaa !77
  %40 = getelementptr inbounds float, ptr %39, i64 0
  %41 = load float, ptr %40, align 4, !tbaa !23
  %42 = load ptr, ptr %3, align 8, !tbaa !77
  %43 = getelementptr inbounds float, ptr %42, i64 5
  %44 = load float, ptr %43, align 4, !tbaa !23
  %45 = load ptr, ptr %4, align 8, !tbaa !77
  %46 = getelementptr inbounds float, ptr %45, i64 2
  %47 = load float, ptr %46, align 4, !tbaa !23
  %48 = fmul float %44, %47
  %49 = call float @llvm.fmuladd.f32(float %38, float %41, float %48)
  %50 = load ptr, ptr %4, align 8, !tbaa !77
  %51 = getelementptr inbounds float, ptr %50, i64 4
  %52 = load float, ptr %51, align 4, !tbaa !23
  %53 = fadd float %49, %52
  store float %53, ptr %7, align 4, !tbaa !23
  %54 = load ptr, ptr %3, align 8, !tbaa !77
  %55 = getelementptr inbounds float, ptr %54, i64 0
  %56 = load float, ptr %55, align 4, !tbaa !23
  %57 = load ptr, ptr %4, align 8, !tbaa !77
  %58 = getelementptr inbounds float, ptr %57, i64 1
  %59 = load float, ptr %58, align 4, !tbaa !23
  %60 = load ptr, ptr %3, align 8, !tbaa !77
  %61 = getelementptr inbounds float, ptr %60, i64 1
  %62 = load float, ptr %61, align 4, !tbaa !23
  %63 = load ptr, ptr %4, align 8, !tbaa !77
  %64 = getelementptr inbounds float, ptr %63, i64 3
  %65 = load float, ptr %64, align 4, !tbaa !23
  %66 = fmul float %62, %65
  %67 = call float @llvm.fmuladd.f32(float %56, float %59, float %66)
  %68 = load ptr, ptr %3, align 8, !tbaa !77
  %69 = getelementptr inbounds float, ptr %68, i64 1
  store float %67, ptr %69, align 4, !tbaa !23
  %70 = load ptr, ptr %3, align 8, !tbaa !77
  %71 = getelementptr inbounds float, ptr %70, i64 2
  %72 = load float, ptr %71, align 4, !tbaa !23
  %73 = load ptr, ptr %4, align 8, !tbaa !77
  %74 = getelementptr inbounds float, ptr %73, i64 1
  %75 = load float, ptr %74, align 4, !tbaa !23
  %76 = load ptr, ptr %3, align 8, !tbaa !77
  %77 = getelementptr inbounds float, ptr %76, i64 3
  %78 = load float, ptr %77, align 4, !tbaa !23
  %79 = load ptr, ptr %4, align 8, !tbaa !77
  %80 = getelementptr inbounds float, ptr %79, i64 3
  %81 = load float, ptr %80, align 4, !tbaa !23
  %82 = fmul float %78, %81
  %83 = call float @llvm.fmuladd.f32(float %72, float %75, float %82)
  %84 = load ptr, ptr %3, align 8, !tbaa !77
  %85 = getelementptr inbounds float, ptr %84, i64 3
  store float %83, ptr %85, align 4, !tbaa !23
  %86 = load ptr, ptr %3, align 8, !tbaa !77
  %87 = getelementptr inbounds float, ptr %86, i64 4
  %88 = load float, ptr %87, align 4, !tbaa !23
  %89 = load ptr, ptr %4, align 8, !tbaa !77
  %90 = getelementptr inbounds float, ptr %89, i64 1
  %91 = load float, ptr %90, align 4, !tbaa !23
  %92 = load ptr, ptr %3, align 8, !tbaa !77
  %93 = getelementptr inbounds float, ptr %92, i64 5
  %94 = load float, ptr %93, align 4, !tbaa !23
  %95 = load ptr, ptr %4, align 8, !tbaa !77
  %96 = getelementptr inbounds float, ptr %95, i64 3
  %97 = load float, ptr %96, align 4, !tbaa !23
  %98 = fmul float %94, %97
  %99 = call float @llvm.fmuladd.f32(float %88, float %91, float %98)
  %100 = load ptr, ptr %4, align 8, !tbaa !77
  %101 = getelementptr inbounds float, ptr %100, i64 5
  %102 = load float, ptr %101, align 4, !tbaa !23
  %103 = fadd float %99, %102
  %104 = load ptr, ptr %3, align 8, !tbaa !77
  %105 = getelementptr inbounds float, ptr %104, i64 5
  store float %103, ptr %105, align 4, !tbaa !23
  %106 = load float, ptr %5, align 4, !tbaa !23
  %107 = load ptr, ptr %3, align 8, !tbaa !77
  %108 = getelementptr inbounds float, ptr %107, i64 0
  store float %106, ptr %108, align 4, !tbaa !23
  %109 = load float, ptr %6, align 4, !tbaa !23
  %110 = load ptr, ptr %3, align 8, !tbaa !77
  %111 = getelementptr inbounds float, ptr %110, i64 2
  store float %109, ptr %111, align 4, !tbaa !23
  %112 = load float, ptr %7, align 4, !tbaa !23
  %113 = load ptr, ptr %3, align 8, !tbaa !77
  %114 = getelementptr inbounds float, ptr %113, i64 4
  store float %112, ptr %114, align 4, !tbaa !23
  call void @llvm.lifetime.end.p0(i64 4, ptr %7) #11
  call void @llvm.lifetime.end.p0(i64 4, ptr %6) #11
  call void @llvm.lifetime.end.p0(i64 4, ptr %5) #11
  ret void
}

; Function Attrs: nounwind uwtable
define internal void @nsvg__xformPremultiply(ptr noundef %0, ptr noundef %1) #0 {
  %3 = alloca ptr, align 8
  %4 = alloca ptr, align 8
  %5 = alloca [6 x float], align 16
  store ptr %0, ptr %3, align 8, !tbaa !77
  store ptr %1, ptr %4, align 8, !tbaa !77
  call void @llvm.lifetime.start.p0(i64 24, ptr %5) #11
  %6 = getelementptr inbounds [6 x float], ptr %5, i64 0, i64 0
  %7 = load ptr, ptr %4, align 8, !tbaa !77
  call void @llvm.memcpy.p0.p0.i64(ptr align 16 %6, ptr align 4 %7, i64 24, i1 false)
  %8 = getelementptr inbounds [6 x float], ptr %5, i64 0, i64 0
  %9 = load ptr, ptr %3, align 8, !tbaa !77
  call void @nsvg__xformMultiply(ptr noundef %8, ptr noundef %9)
  %10 = load ptr, ptr %3, align 8, !tbaa !77
  %11 = getelementptr inbounds [6 x float], ptr %5, i64 0, i64 0
  call void @llvm.memcpy.p0.p0.i64(ptr align 4 %10, ptr align 16 %11, i64 24, i1 false)
  call void @llvm.lifetime.end.p0(i64 24, ptr %5) #11
  ret void
}