; Function Attrs: mustprogress nofree norecurse nosync nounwind willreturn memory(argmem: readwrite) uwtable
define internal fastcc void @nsvg__xformPremultiply(ptr noundef nonnull captures(none) %0, ptr noundef nonnull readonly captures(none) %1) unnamed_addr #19 {
  %.sroa.0.0.copyload = load float, ptr %1, align 4
  %.sroa.6.0..sroa_idx = getelementptr inbounds nuw i8, ptr %1, i64 4
  %.sroa.6.0.copyload = load float, ptr %.sroa.6.0..sroa_idx, align 4
  %.sroa.8.0..sroa_idx = getelementptr inbounds nuw i8, ptr %1, i64 8
  %.sroa.8.0.copyload = load float, ptr %.sroa.8.0..sroa_idx, align 4
  %.sroa.10.0..sroa_idx = getelementptr inbounds nuw i8, ptr %1, i64 12
  %.sroa.10.0.copyload = load float, ptr %.sroa.10.0..sroa_idx, align 4
  %.sroa.12.0..sroa_idx = getelementptr inbounds nuw i8, ptr %1, i64 16
  %.sroa.12.0.copyload = load float, ptr %.sroa.12.0..sroa_idx, align 4
  %.sroa.14.0..sroa_idx = getelementptr inbounds nuw i8, ptr %1, i64 20
  %.sroa.14.0.copyload = load float, ptr %.sroa.14.0..sroa_idx, align 4
  %3 = load float, ptr %0, align 4, !tbaa !28
  %4 = getelementptr inbounds nuw i8, ptr %0, i64 8
  %5 = load float, ptr %4, align 4, !tbaa !28
  %6 = fmul float %.sroa.6.0.copyload, %5
  %7 = tail call float @llvm.fmuladd.f32(float %.sroa.0.0.copyload, float %3, float %6)
  %8 = fmul float %.sroa.10.0.copyload, %5
  %9 = tail call float @llvm.fmuladd.f32(float %.sroa.8.0.copyload, float %3, float %8)
  %10 = fmul float %.sroa.14.0.copyload, %5
  %11 = tail call float @llvm.fmuladd.f32(float %.sroa.12.0.copyload, float %3, float %10)
  %12 = getelementptr inbounds nuw i8, ptr %0, i64 16
  %13 = load float, ptr %12, align 4, !tbaa !28
  %14 = fadd float %13, %11
  %15 = getelementptr inbounds nuw i8, ptr %0, i64 4
  %16 = load float, ptr %15, align 4, !tbaa !28
  %17 = getelementptr inbounds nuw i8, ptr %0, i64 12
  %18 = load float, ptr %17, align 4, !tbaa !28
  %19 = fmul float %.sroa.6.0.copyload, %18
  %20 = tail call float @llvm.fmuladd.f32(float %.sroa.0.0.copyload, float %16, float %19)
  %21 = fmul float %.sroa.10.0.copyload, %18
  %22 = tail call float @llvm.fmuladd.f32(float %.sroa.8.0.copyload, float %16, float %21)
  %23 = fmul float %.sroa.14.0.copyload, %18
  %24 = tail call float @llvm.fmuladd.f32(float %.sroa.12.0.copyload, float %16, float %23)
  %25 = getelementptr inbounds nuw i8, ptr %0, i64 20
  %26 = load float, ptr %25, align 4, !tbaa !28
  %27 = fadd float %26, %24
  store float %7, ptr %0, align 4
  store float %20, ptr %15, align 4
  store float %9, ptr %4, align 4
  store float %22, ptr %17, align 4
  store float %14, ptr %12, align 4
  store float %27, ptr %25, align 4
  ret void
}